OS|Linux|0.0.0 Linux 2.6.35.7-I9000XWJVH-CL184813 #2 PREEMPT Wed May 4 18:15:31 KST 2011 armv7l
CPU|arm||0
Crash|SIGSEGV|0x5f782304|4
Module|app_process||app_process|EC205C8C8949A9C6A185221B91D773140|0x00008000|0x00009fff|1
Module|__properties__ (deleted)||__properties__ (deleted)|000000000000000000000000000000000|0x40000000|0x40007fff|0
Module|dalvik-heap (deleted)||dalvik-heap (deleted)|000000000000000000000000000000000|0x40009000|0x44008fff|0
Module|dalvik-bitmap-1 (deleted)||dalvik-bitmap-1 (deleted)|000000000000000000000000000000000|0x44009000|0x44108fff|0
Module|dalvik-bitmap-2 (deleted)||dalvik-bitmap-2 (deleted)|000000000000000000000000000000000|0x44109000|0x44208fff|0
Module|dalvik-card-table (deleted)||dalvik-card-table (deleted)|000000000000000000000000000000000|0x44209000|0x44289fff|0
Module|dalvik-LinearAlloc (deleted)||dalvik-LinearAlloc (deleted)|000000000000000000000000000000000|0x4428d000|0x4478cfff|0
Module|core.odex||core.odex|000000000000000000000000000000000|0x4478e000|0x44c21fff|0
Module|bouncycastle.jar||bouncycastle.jar|000000000000000000000000000000000|0x44c61000|0x44c61fff|0
Module|bouncycastle.odex||bouncycastle.odex|000000000000000000000000000000000|0x44c62000|0x44d1ffff|0
Module|ext.jar||ext.jar|000000000000000000000000000000000|0x44d20000|0x44d20fff|0
Module|ext.odex||ext.odex|000000000000000000000000000000000|0x44d21000|0x44e74fff|0
Module|framework.odex||framework.odex|000000000000000000000000000000000|0x44e77000|0x45797fff|0
Module|android.policy.jar||android.policy.jar|000000000000000000000000000000000|0x45843000|0x45843fff|0
Module|android.policy.odex||android.policy.odex|000000000000000000000000000000000|0x45844000|0x45896fff|0
Module|services.jar||services.jar|000000000000000000000000000000000|0x45897000|0x45897fff|0
Module|services.odex||services.odex|000000000000000000000000000000000|0x45898000|0x45a67fff|0
Module|core-junit.jar||core-junit.jar|000000000000000000000000000000000|0x45a7a000|0x45a7afff|0
Module|core-junit.odex||core-junit.odex|000000000000000000000000000000000|0x45a7b000|0x45a80fff|0
Module|icudt44l.dat||icudt44l.dat|000000000000000000000000000000000|0x45a81000|0x460c8fff|0
Module|SurfaceFlinger read-only heap (deleted)||SurfaceFlinger read-only heap (deleted)|000000000000000000000000000000000|0x460d8000|0x460d8fff|0
Module|DroidSansArabic.ttf||DroidSansArabic.ttf|000000000000000000000000000000000|0x460de000|0x460e6fff|0
Module|DroidSansHebrew.ttf||DroidSansHebrew.ttf|000000000000000000000000000000000|0x460e7000|0x460ecfff|0
Module|DroidSansThai.ttf||DroidSansThai.ttf|000000000000000000000000000000000|0x460ed000|0x460f5fff|0
Module|zoneinfo.dat||zoneinfo.dat|000000000000000000000000000000000|0x460f8000|0x46172fff|0
Module|binder||binder|000000000000000000000000000000000|0x4682d000|0x46956fff|0
Module|data@app@org.mozilla.firefox-2.apk@classes.dex||data@app@org.mozilla.firefox-2.apk@classes.dex|000000000000000000000000000000000|0x46b73000|0x46cfafff|0
Module|org.mozilla.firefox.App (deleted)||org.mozilla.firefox.App (deleted)|000000000000000000000000000000000|0x46d23000|0x46d26fff|0
Module|DroidSans.ttf||DroidSans.ttf|000000000000000000000000000000000|0x46eb6000|0x46ed3fff|0
Module|DroidSans_Subset.ttf||DroidSans_Subset.ttf|000000000000000000000000000000000|0x46f57000|0x46f75fff|0
Module|SurfaceFlinger Client control-block (deleted)||SurfaceFlinger Client control-block (deleted)|000000000000000000000000000000000|0x47356000|0x4735dfff|0
Module|libplc4.so||libplc4.so|F4251300E45DE676F1ECDD26E9A1E0470|0x47492000|0x47494fff|0
Module|libplds4.so||libplds4.so|96612B0CA073BBDC4F567C9921B824090|0x47495000|0x47497fff|0
Module|data@app@com.adobe.flashplayer-1.apk@classes.dex||data@app@com.adobe.flashplayer-1.apk@classes.dex|000000000000000000000000000000000|0x47599000|0x475a9fff|0
Module|libxpcom.so||libxpcom.so|DFD17824EA8485B19187D0EE61B645E00|0x475ae000|0x475b0fff|0
Module|libmozalloc.so||libmozalloc.so|87375889FCB14D92F4044552683B612D0|0x475b6000|0x475b9fff|0
Module|libnssutil3.so||libnssutil3.so|9F843B6B1A2FD0D6FCBAE020B22B55E30|0x475c0000|0x475d5fff|0
Module|cookies.sqlite-shm||cookies.sqlite-shm|000000000000000000000000000000000|0x475ee000|0x475f5fff|0
Module|startupCache.4.little||startupCache.4.little|000000000000000000000000000000000|0x48900000|0x4899afff|0
Module|libsmime3.so||libsmime3.so|DF375E1E98D90620FE302E8446C226450|0x48b95000|0x48baafff|0
Module|libssl3.so||libssl3.so|37D518FDFB552F1F1E4BFD7614A7D0F20|0x48bce000|0x48beefff|0
Module|libmozsqlite3.so||libmozsqlite3.so|6FAA7CB267E984BBDE1EF7CF38B358410|0x49b3c000|0x49b8ffff|0
Module|libnspr4.so||libnspr4.so|E83F1D48AACDC892DF2D7DAC31EABA920|0x49b90000|0x49bb2fff|0
Module|libnss3.so||libnss3.so|7307FE2521D784E40B11E14BC86CB4350|0x49c26000|0x49cbafff|0
Module|dalvik-jit-code-cache (deleted)||dalvik-jit-code-cache (deleted)|000000000000000000000000000000000|0x49e32000|0x49f31fff|0
Module|org.mozilla.firefox-2.apk||org.mozilla.firefox-2.apk|000000000000000000000000000000000|0x49f32000|0x4b04ffff|0
Module|libsoftokn3.so (deleted)||libsoftokn3.so (deleted)|000000000000000000000000000000000|0x4bad1000|0x4baf2fff|0
Module|libfreebl3.so (deleted)||libfreebl3.so (deleted)|000000000000000000000000000000000|0x4bc33000|0x4bc63fff|0
Module|libnssckbi.so (deleted)||libnssckbi.so (deleted)|000000000000000000000000000000000|0x4be5c000|0x4beb5fff|0
Module|libxul.so||libxul.so|D2D63D87BC739FA5709133B418E767CB0|0x4c02b000|0x4d255fff|0
Module|DroidSansFallback.ttf||DroidSansFallback.ttf|000000000000000000000000000000000|0x4d256000|0x4d695fff|0
Module|org.mozilla.firefox-2.apk||org.mozilla.firefox-2.apk|000000000000000000000000000000000|0x51a00000|0x52b1dfff|0
Module|libquramimagecodec.so||libquramimagecodec.so|B4C6ABFEB5B9A50C849E966B247D319F0|0x80000000|0x8006cfff|0
Module|libdvm.so||libdvm.so|98B90CDA0F0D4BB6B3D4A65A8607B61B0|0x80100000|0x801a9fff|0
Module|libsisodrm.so||libsisodrm.so|1D1549F390B2C2C55FEA1FFC374588280|0x80200000|0x802dffff|0
Module|libQmageDecoder.so||libQmageDecoder.so|ADC6E619BCE23E808A56E9D1345E8E8D0|0x80300000|0x8035cfff|0
Module|libnfc_ndef.so||libnfc_ndef.so|66E0F1C56609108E0C855E9243357D4F0|0x80400000|0x80401fff|0
Module|libsensor_yamaha_test.so||libsensor_yamaha_test.so|C7BE023855CE387EB4E6A7D314B316AD0|0x80500000|0x80502fff|0
Module|libsecril-client.so||libsecril-client.so|BAF31C5CB26715CDB832CBB232543A0D0|0x80600000|0x80603fff|0
Module|libwmdrm.so||libwmdrm.so|0E418187A19C6D6A222832824381A5720|0x80700000|0x80750fff|0
Module|libomadrm.so||libomadrm.so|14D35918220A8AC81E6992E4162DE7290|0x80800000|0x80808fff|0
Module|libsamsung_http_file.so||libsamsung_http_file.so|F6EAB61A237644014BD8CD8D5E3A39B50|0x80900000|0x80915fff|0
Module|libsamsung_http.so||libsamsung_http.so|F06577590A3C0DD89670395BF58808880|0x80a00000|0x80a12fff|0
Module|libsamsung_psi.so||libsamsung_psi.so|DF001F3CFC66E332732B1C3AAB062FD10|0x80b00000|0x80b0ffff|0
Module|libdivxdrm.so||libdivxdrm.so|6CDBE16C163E452E0DD6F2F0B27B87B30|0x80c00000|0x80c35fff|0
Module|libsthmb.so||libsthmb.so|C1E4D8F94BEB1C32ED380723509EAD490|0x80d00000|0x80da4fff|0
Module|libsavscmn.so||libsavscmn.so|0E445D2A5A8FCA7790412AC578C877C50|0x80e00000|0x80e17fff|0
Module|libstagefright_enc_common.so||libstagefright_enc_common.so|058BF00CA0DC0E8135C13001180184ED0|0x80f00000|0x80f01fff|0
Module|libstagefright_foundation.so||libstagefright_foundation.so|6D4EC84153B57B2CD3176939FD80B0220|0x81000000|0x81009fff|0
Module|libmozglue.so||libmozglue.so|2176D9E1920AC8A619C5BB92C622EC830|0x81100000|0x81120fff|0
Module|gralloc.s5pc110.so||gralloc.s5pc110.so|633DAA6E7FA97C09E999BFD8261D20CF0|0x81200000|0x81204fff|0
Module|libsrv_um.so||libsrv_um.so|415413ACD841B5556E38132F143F358D0|0x81300000|0x81322fff|0
Module|libpvr2d.so||libpvr2d.so|4380443B3FE275EC1ABB3E5FEC9B7B7B0|0x81400000|0x81405fff|0
Module|libEGL_POWERVR_SGX540_120.so||libEGL_POWERVR_SGX540_120.so|EAFFFF98FF9AEAFF40000000400000000|0x81500000|0x81502fff|0
Module|libIMGegl.so||libIMGegl.so|F8B91E6D10D65F5D040B0589A9F648200|0x81600000|0x8160dfff|0
Module|libGLESv1_CM_POWERVR_SGX540_120.so||libGLESv1_CM_POWERVR_SGX540_120.so|60886D06B714427FDB189B82764558160|0x81700000|0x81764fff|0
Module|libusc.so||libusc.so|57AF2680E3695E6227FB1831F893ADC00|0x81800000|0x818bdfff|0
Module|libGLESv2_POWERVR_SGX540_120.so||libGLESv2_POWERVR_SGX540_120.so|1B41F5D2CD7A47F58F695A9EDBFDD7D20|0x81900000|0x8194bfff|0
Module|libpvrANDROID_WSEGL.so||libpvrANDROID_WSEGL.so|5A9512BF11D071411AAA06EBACEA45D20|0x81a00000|0x81a01fff|0
Module|libglslcompiler.so||libglslcompiler.so|C7A8CA243A6116ECB5F884FEC6F19E040|0x81b00000|0x81b3dfff|0
Module|libaes.so||libaes.so|0E7EAE62EB3828F942D979649417CCDD0|0x90200000|0x90208fff|0
Module|libstlport.so||libstlport.so|0022ADADCD97ECC73D447346D7C7FDE70|0x9d100000|0x9d139fff|0
Module|libjpeg.so||libjpeg.so|E78CC33BC9D4ADFD04BDF41B82725BAD0|0x9d700000|0x9d731fff|0
Module|libdrm1.so||libdrm1.so|17D281E598706B03927B9BC4D376135B0|0x9ea00000|0x9ea08fff|0
Module|libwmlscriptcore.so||libwmlscriptcore.so|50FF73B0DE070B0C53B14F074B582C090|0x9ec00000|0x9ec1cfff|0
Module|libstagefright.so||libstagefright.so|4DEDF97D791F07C2504BC0984BD622100|0xa2f00000|0xa3068fff|0
Module|libstagefright_color_conversion.so||libstagefright_color_conversion.so|65273A0F312677CD296B956FB15CAEB30|0xa3500000|0xa3503fff|0
Module|libstagefright_avc_common.so||libstagefright_avc_common.so|BA6101CB9861C51313B31454B2FE87B00|0xa3600000|0xa3605fff|0
Module|libstagefright_amrnb_common.so||libstagefright_amrnb_common.so|5C2B36122ED8AF49D65CCD688597E2B30|0xa3700000|0xa370cfff|0
Module|libopencore_common.so||libopencore_common.so|8F7AFFEF394E9FD14CBD927BA2ADE8860|0xa3900000|0xa39bbfff|0
Module|libopencore_player.so||libopencore_player.so|DAD1B1F3D61FDBE7FB7B80B9F2B9D63F0|0xa4800000|0xa48b5fff|0
Module|libopencore_net_support.so||libopencore_net_support.so|08595993649DF81BAD3F272A73B353150|0xa6800000|0xa682bfff|0
Module|libemoji.so||libemoji.so|AC5F2F4784FC9D9ECBD25BBADD28934C0|0xa7500000|0xa7502fff|0
Module|libhardware_legacy.so||libhardware_legacy.so|A021E7D3E21DEB33F924497B407350000|0xa7e00000|0xa7e18fff|0
Module|libhardware.so||libhardware.so|319288CD5CE5AC000D40C3E7614E6EEB0|0xa7f00000|0xa7f01fff|0
Module|libutils.so||libutils.so|EC7358A582B6850A0713BCC629A42D350|0xa8100000|0xa8127fff|0
Module|libbinder.so||libbinder.so|5CA1A10E51C1EE1334C9558EA5E40DB90|0xa8200000|0xa8223fff|0
Module|libwebcore.so||libwebcore.so|C33C957E8C098FC923935B926972D1A20|0xa8300000|0xa8774fff|0
Module|libexpat.so||libexpat.so|8F70CE4ADAC580725148EC7D007E0CED0|0xa8a00000|0xa8a13fff|0
Module|libsqlite.so||libsqlite.so|9B56E91256A1BDBF05011E13DDEB3AAB0|0xa8b00000|0xa8b4efff|0
Module|libmedia.so||libmedia.so|2B2225F57AA92BB3DB408C9F3CC7606C0|0xa9000000|0xa9069fff|0
Module|libmedia_jni.so||libmedia_jni.so|403AE74B19D3541BAF289220274CCCEA0|0xa9300000|0xa932bfff|0
Module|libvorbisidec.so||libvorbisidec.so|73736DA653CCD9239A023F20CDA9D3DC0|0xa9400000|0xa941cfff|0
Module|libsonivox.so||libsonivox.so|082D14D52D33F1111258DCCD77117A380|0xa9500000|0xa9552fff|0
Module|libsoundpool.so||libsoundpool.so|E6B57616D4BF01406F33F0C843641A5C0|0xa9800000|0xa9806fff|0
Module|libskiagl.so||libskiagl.so|6BB12F7D1A2E0405E42AF8F5B6A556610|0xa9c00000|0xa9c0afff|0
Module|libRS.so||libRS.so|9C0FE2D84652649F1A5050FC842235790|0xa9e00000|0xa9e28fff|0
Module|librs_jni.so||librs_jni.so|DE802E047CDA4A8174D8472C7BAE95C80|0xab000000|0xab005fff|0
Module|libskia.so||libskia.so|AE80F3D80F3562D7126759CC0F8CEF8F0|0xab100000|0xab212fff|0
Module|libgui.so||libgui.so|8E866F3AF7CEA6F366F42DDF82DE67840|0xab800000|0xab80bfff|0
Module|libui.so||libui.so|BE29F5130A8A8EC7DDC9D5C670CA11540|0xab900000|0xab933fff|0
Module|libcamera_client.so||libcamera_client.so|2514580B95E2717D5718D2FC2B56D51D0|0xaba80000|0xaba92fff|0
Module|libexif.so||libexif.so|CF4DD12B4F4708E99CEADED0CC7E05A10|0xabb00000|0xabb09fff|0
Module|libacc.so||libacc.so|E5766E5B704CC2D7251F19EF64577A440|0xabc00000|0xabc08fff|0
Module|libETC1.so||libETC1.so|C0BBCE406DC9D497D90C1CE8B1A6651E0|0xabd00000|0xabd02fff|0
Module|libEGL.so||libEGL.so|B14184F5CEF08B97AC2CC12D9C7F50840|0xabe00000|0xabe08fff|0
Module|libGLESv2.so||libGLESv2.so|FE1D03CAF6AE0FC247302CFBA0B170B90|0xac100000|0xac104fff|0
Module|libGLESv1_CM.so||libGLESv1_CM.so|0C6ECF7C320EFDE03907FC007AA46CB20|0xac200000|0xac205fff|0
Module|libsurfaceflinger_client.so||libsurfaceflinger_client.so|94908370DC43AD4B4DCFC9899A23C9E30|0xac700000|0xac719fff|0
Module|libpixelflinger.so||libpixelflinger.so|B8B7DE1E9A06C63010BD2995054FD5870|0xac900000|0xac919fff|0
Module|libnativehelper.so||libnativehelper.so|9A5A56AA13627C1428E317126184CC2C0|0xad100000|0xad12dfff|0
Module|libandroid_runtime.so||libandroid_runtime.so|D65C71CC9A671F73B875510285FB30680|0xad300000|0xad3c1fff|0
Module|libicui18n.so||libicui18n.so|1B627FDC56B659BFD9095CCBAF6671440|0xad900000|0xad9f1fff|0
Module|libicuuc.so||libicuuc.so|26445984B850147A77CC965CB760AFEA0|0xade00000|0xadec6fff|0
Module|libnetutils.so||libnetutils.so|346392554A423B1FC8AACCED8BBFB32B0|0xae300000|0xae304fff|0
Module|libwpa_client.so||libwpa_client.so|DC4C3B72119483B2F150CCDAD3BED38E0|0xae400000|0xae402fff|0
Module|libdbus.so||libdbus.so|1BBCD9BA7CACB7ADE5401F822274C5370|0xae700000|0xae743fff|0
Module|libbluedroid.so||libbluedroid.so|064734B84D7C3059B4B87A37251F41910|0xae900000|0xae903fff|0
Module|libcrypto.so||libcrypto.so|6F56CE89108A1C5D0316BB84AE4432930|0xaf000000|0xaf0bdfff|0
Module|libssl.so||libssl.so|CA92DB9B990528A744E6F872A114A3AB0|0xaf400000|0xaf42cfff|0
Module|libz.so||libz.so|B5DEF8E828B07616B53AD0A979CAB8AA0|0xaf700000|0xaf714fff|0
Module|libcutils.so||libcutils.so|2A769D92BD76010495A9CE7D416A963C0|0xaf900000|0xaf90efff|0
Module|liblog.so||liblog.so|A3F43BD6EC5CD1C4A44932E6154657B00|0xafa00000|0xafa03fff|0
Module|libm.so||libm.so|486A05B7E54CEBF40E6BBF39A56E7E800|0xafb00000|0xafb16fff|0
Module|libstdc++.so||libstdc++.so|0E0598A379DC96A55438AA7D7B17EAEF0|0xafc00000|0xafc01fff|0
Module|libc.so||libc.so|0EB2725B702EB5AF44EC0C0596E6E6F50|0xafd00000|0xafd42fff|0
Module|libtvout.so||libtvout.so|205EBB32D048E9C11B5264D70C53E3170|0xb2000000|0xb2013fff|0

4|0|libxul.so|nsExpirationTracker<gfxTextRun, 3u>::RemoveObject|../../dist/include/nsExpirationTracker.h|168|0x0
4|1|libxul.so|nsTextFrame::ClearTextRun|hg:hg.mozilla.org/releases/mozilla-release:layout/generic/nsTextFrameThebes.cpp:9c64e364f5df|555|0x5
4|2|libxul.so|nsTextFrame::ClearTextRuns|hg:hg.mozilla.org/releases/mozilla-release:layout/generic/nsTextFrame.h:9c64e364f5df|432|0x9
4|3|libxul.so|nsTextFrame::SetLength|hg:hg.mozilla.org/releases/mozilla-release:layout/generic/nsTextFrameThebes.cpp:9c64e364f5df|7077|0x5
4|4|libxul.so|nsTextFrame::ReflowText|hg:hg.mozilla.org/releases/mozilla-release:layout/generic/nsTextFrameThebes.cpp:9c64e364f5df|7395|0x5
4|5|libxul.so|nsTextFrame::Reflow|hg:hg.mozilla.org/releases/mozilla-release:layout/generic/nsTextFrameThebes.cpp:9c64e364f5df|7196|0x15
4|6|libxul.so|nsFirstLetterFrame::Reflow|hg:hg.mozilla.org/releases/mozilla-release:layout/generic/nsFirstLetterFrame.cpp:9c64e364f5df|249|0x13
4|7|libxul.so|nsBlockReflowContext::ReflowBlock|hg:hg.mozilla.org/releases/mozilla-release:layout/generic/nsBlockReflowContext.cpp:9c64e364f5df|295|0x13
4|8|libxul.so|nsBlockFrame::ReflowFloat|hg:hg.mozilla.org/releases/mozilla-release:layout/generic/nsBlockFrame.cpp:9c64e364f5df|5911|0x1f
4|9|libxul.so|nsBlockReflowState::FlowAndPlaceFloat|hg:hg.mozilla.org/releases/mozilla-release:layout/generic/nsBlockReflowState.cpp:9c64e364f5df|657|0x15
4|10|libxul.so|nsBlockReflowState::AddFloat|hg:hg.mozilla.org/releases/mozilla-release:layout/generic/nsBlockReflowState.cpp:9c64e364f5df|539|0x7
4|11|libxul.so|nsLineLayout::ReflowFrame|hg:hg.mozilla.org/releases/mozilla-release:layout/generic/nsLineLayout.h:9c64e364f5df|228|0x7
4|12|libxul.so|nsBlockFrame::ReflowInlineFrame|hg:hg.mozilla.org/releases/mozilla-release:layout/generic/nsBlockFrame.cpp:9c64e364f5df|3860|0xb
4|13|libxul.so|nsBlockFrame::DoReflowInlineFrames|hg:hg.mozilla.org/releases/mozilla-release:layout/generic/nsBlockFrame.cpp:9c64e364f5df|3656|0x11
4|14|libxul.so|nsBlockFrame::ReflowInlineFrames|hg:hg.mozilla.org/releases/mozilla-release:layout/generic/nsBlockFrame.cpp:9c64e364f5df|3510|0x23
4|15|libxul.so|nsBlockFrame::ReflowLine|hg:hg.mozilla.org/releases/mozilla-release:layout/generic/nsBlockFrame.cpp:9c64e364f5df|2595|0x5
4|16|libxul.so|nsBlockFrame::ReflowDirtyLines|hg:hg.mozilla.org/releases/mozilla-release:layout/generic/nsBlockFrame.cpp:9c64e364f5df|2045|0x3
4|17|libxul.so|nsBlockFrame::Reflow|hg:hg.mozilla.org/releases/mozilla-release:layout/generic/nsBlockFrame.cpp:9c64e364f5df|1094|0x5
4|18|libxul.so|nsBlockReflowContext::ReflowBlock|hg:hg.mozilla.org/releases/mozilla-release:layout/generic/nsBlockReflowContext.cpp:9c64e364f5df|295|0x13
4|19|libxul.so|nsBlockFrame::ReflowBlockFrame|hg:hg.mozilla.org/releases/mozilla-release:layout/generic/nsBlockFrame.cpp:9c64e364f5df|3231|0x23
4|20|libxul.so|nsBlockFrame::ReflowLine|hg:hg.mozilla.org/releases/mozilla-release:layout/generic/nsBlockFrame.cpp:9c64e364f5df|2539|0xb
4|21|libxul.so|nsBlockFrame::ReflowDirtyLines|hg:hg.mozilla.org/releases/mozilla-release:layout/generic/nsBlockFrame.cpp:9c64e364f5df|2045|0x3
4|22|libxul.so|nsBlockFrame::Reflow|hg:hg.mozilla.org/releases/mozilla-release:layout/generic/nsBlockFrame.cpp:9c64e364f5df|1094|0x5
4|23|libxul.so|nsBlockReflowContext::ReflowBlock|hg:hg.mozilla.org/releases/mozilla-release:layout/generic/nsBlockReflowContext.cpp:9c64e364f5df|295|0x13
4|24|libxul.so|nsBlockFrame::ReflowFloat|hg:hg.mozilla.org/releases/mozilla-release:layout/generic/nsBlockFrame.cpp:9c64e364f5df|5911|0x1f
4|25|libxul.so|nsBlockReflowState::FlowAndPlaceFloat|hg:hg.mozilla.org/releases/mozilla-release:layout/generic/nsBlockReflowState.cpp:9c64e364f5df|787|0x1d
4|26|libxul.so|nsBlockReflowState::AddFloat|hg:hg.mozilla.org/releases/mozilla-release:layout/generic/nsBlockReflowState.cpp:9c64e364f5df|539|0x7
4|27|libxul.so|nsLineLayout::ReflowFrame|hg:hg.mozilla.org/releases/mozilla-release:layout/generic/nsLineLayout.h:9c64e364f5df|228|0x7
4|28|libxul.so|nsBlockFrame::ReflowInlineFrame|hg:hg.mozilla.org/releases/mozilla-release:layout/generic/nsBlockFrame.cpp:9c64e364f5df|3860|0xb
4|29|libxul.so|nsBlockFrame::DoReflowInlineFrames|hg:hg.mozilla.org/releases/mozilla-release:layout/generic/nsBlockFrame.cpp:9c64e364f5df|3656|0x11
4|30|libxul.so|nsBlockFrame::ReflowInlineFrames|hg:hg.mozilla.org/releases/mozilla-release:layout/generic/nsBlockFrame.cpp:9c64e364f5df|3510|0x23
4|31|libxul.so|nsBlockFrame::ReflowLine|hg:hg.mozilla.org/releases/mozilla-release:layout/generic/nsBlockFrame.cpp:9c64e364f5df|2595|0x5
4|32|libxul.so|nsBlockFrame::ReflowDirtyLines|hg:hg.mozilla.org/releases/mozilla-release:layout/generic/nsBlockFrame.cpp:9c64e364f5df|2045|0x3
4|33|libxul.so|nsBlockFrame::Reflow|hg:hg.mozilla.org/releases/mozilla-release:layout/generic/nsBlockFrame.cpp:9c64e364f5df|1094|0x5
4|34|libxul.so|nsBlockReflowContext::ReflowBlock|hg:hg.mozilla.org/releases/mozilla-release:layout/generic/nsBlockReflowContext.cpp:9c64e364f5df|295|0x13
4|35|libxul.so|nsBlockFrame::ReflowFloat|hg:hg.mozilla.org/releases/mozilla-release:layout/generic/nsBlockFrame.cpp:9c64e364f5df|5911|0x1f
4|36|libxul.so|nsBlockReflowState::FlowAndPlaceFloat|hg:hg.mozilla.org/releases/mozilla-release:layout/generic/nsBlockReflowState.cpp:9c64e364f5df|787|0x1d
4|37|libxul.so|nsBlockReflowState::AddFloat|hg:hg.mozilla.org/releases/mozilla-release:layout/generic/nsBlockReflowState.cpp:9c64e364f5df|539|0x7
4|38|libxul.so|nsLineLayout::ReflowFrame|hg:hg.mozilla.org/releases/mozilla-release:layout/generic/nsLineLayout.h:9c64e364f5df|228|0x7
4|39|libxul.so|nsBlockFrame::ReflowInlineFrame|hg:hg.mozilla.org/releases/mozilla-release:layout/generic/nsBlockFrame.cpp:9c64e364f5df|3860|0xb
4|40|libxul.so|nsBlockFrame::DoReflowInlineFrames|hg:hg.mozilla.org/releases/mozilla-release:layout/generic/nsBlockFrame.cpp:9c64e364f5df|3656|0x11
4|41|libxul.so|nsBlockFrame::ReflowInlineFrames|hg:hg.mozilla.org/releases/mozilla-release:layout/generic/nsBlockFrame.cpp:9c64e364f5df|3510|0x23
4|42|libxul.so|nsBlockFrame::ReflowLine|hg:hg.mozilla.org/releases/mozilla-release:layout/generic/nsBlockFrame.cpp:9c64e364f5df|2595|0x5
4|43|libxul.so|nsBlockFrame::ReflowDirtyLines|hg:hg.mozilla.org/releases/mozilla-release:layout/generic/nsBlockFrame.cpp:9c64e364f5df|2045|0x3
4|44|libxul.so|nsBlockFrame::Reflow|hg:hg.mozilla.org/releases/mozilla-release:layout/generic/nsBlockFrame.cpp:9c64e364f5df|1094|0x5
4|45|libxul.so|nsBlockReflowContext::ReflowBlock|hg:hg.mozilla.org/releases/mozilla-release:layout/generic/nsBlockReflowContext.cpp:9c64e364f5df|295|0x13
4|46|libxul.so|nsBlockFrame::ReflowBlockFrame|hg:hg.mozilla.org/releases/mozilla-release:layout/generic/nsBlockFrame.cpp:9c64e364f5df|3231|0x23
4|47|libxul.so|nsBlockFrame::ReflowLine|hg:hg.mozilla.org/releases/mozilla-release:layout/generic/nsBlockFrame.cpp:9c64e364f5df|2539|0xb
4|48|libxul.so|nsBlockFrame::ReflowDirtyLines|hg:hg.mozilla.org/releases/mozilla-release:layout/generic/nsBlockFrame.cpp:9c64e364f5df|2045|0x3
4|49|libxul.so|nsBlockFrame::Reflow|hg:hg.mozilla.org/releases/mozilla-release:layout/generic/nsBlockFrame.cpp:9c64e364f5df|1094|0x5
4|50|libxul.so|nsBlockReflowContext::ReflowBlock|hg:hg.mozilla.org/releases/mozilla-release:layout/generic/nsBlockReflowContext.cpp:9c64e364f5df|295|0x13
4|51|libxul.so|nsBlockFrame::ReflowBlockFrame|hg:hg.mozilla.org/releases/mozilla-release:layout/generic/nsBlockFrame.cpp:9c64e364f5df|3231|0x23
4|52|libxul.so|nsBlockFrame::ReflowLine|hg:hg.mozilla.org/releases/mozilla-release:layout/generic/nsBlockFrame.cpp:9c64e364f5df|2539|0xb
4|53|libxul.so|nsBlockFrame::ReflowDirtyLines|hg:hg.mozilla.org/releases/mozilla-release:layout/generic/nsBlockFrame.cpp:9c64e364f5df|2045|0x3
4|54|libxul.so|nsBlockFrame::Reflow|hg:hg.mozilla.org/releases/mozilla-release:layout/generic/nsBlockFrame.cpp:9c64e364f5df|1094|0x5
4|55|libxul.so|nsBlockReflowContext::ReflowBlock|hg:hg.mozilla.org/releases/mozilla-release:layout/generic/nsBlockReflowContext.cpp:9c64e364f5df|295|0x13
4|56|libxul.so|nsBlockFrame::ReflowBlockFrame|hg:hg.mozilla.org/releases/mozilla-release:layout/generic/nsBlockFrame.cpp:9c64e364f5df|3231|0x23
4|57|libxul.so|nsBlockFrame::ReflowLine|hg:hg.mozilla.org/releases/mozilla-release:layout/generic/nsBlockFrame.cpp:9c64e364f5df|2539|0xb
4|58|libxul.so|nsBlockFrame::ReflowDirtyLines|hg:hg.mozilla.org/releases/mozilla-release:layout/generic/nsBlockFrame.cpp:9c64e364f5df|2045|0x3
4|59|libxul.so|nsBlockFrame::Reflow|hg:hg.mozilla.org/releases/mozilla-release:layout/generic/nsBlockFrame.cpp:9c64e364f5df|1094|0x5
4|60|libxul.so|nsContainerFrame::ReflowChild|hg:hg.mozilla.org/releases/mozilla-release:layout/generic/nsContainerFrame.cpp:9c64e364f5df|941|0x11
4|61|libxul.so|nsCanvasFrame::Reflow|hg:hg.mozilla.org/releases/mozilla-release:layout/generic/nsCanvasFrame.cpp:9c64e364f5df|458|0x31
4|62|libxul.so|nsContainerFrame::ReflowChild|hg:hg.mozilla.org/releases/mozilla-release:layout/generic/nsContainerFrame.cpp:9c64e364f5df|941|0x11
4|63|libxul.so|nsHTMLScrollFrame::ReflowScrolledFrame|hg:hg.mozilla.org/releases/mozilla-release:layout/generic/nsGfxScrollFrame.cpp:9c64e364f5df|552|0x1b
4|64|libxul.so|nsHTMLScrollFrame::ReflowContents|hg:hg.mozilla.org/releases/mozilla-release:layout/generic/nsGfxScrollFrame.cpp:9c64e364f5df|650|0x1b
4|65|libxul.so|nsHTMLScrollFrame::Reflow|hg:hg.mozilla.org/releases/mozilla-release:layout/generic/nsGfxScrollFrame.cpp:9c64e364f5df|891|0x3
4|66|libxul.so|nsContainerFrame::ReflowChild|hg:hg.mozilla.org/releases/mozilla-release:layout/generic/nsContainerFrame.cpp:9c64e364f5df|941|0x11
4|67|libxul.so|ViewportFrame::Reflow|hg:hg.mozilla.org/releases/mozilla-release:layout/generic/nsViewportFrame.cpp:9c64e364f5df|231|0x23
4|68|libxul.so|PresShell::DoReflow|hg:hg.mozilla.org/releases/mozilla-release:layout/base/nsPresShell.cpp:9c64e364f5df|7622|0xf
4|69|libxul.so|PresShell::ProcessReflowCommands|hg:hg.mozilla.org/releases/mozilla-release:layout/base/nsPresShell.cpp:9c64e364f5df|7769|0x9
4|70|libxul.so|PresShell::FlushPendingNotifications|hg:hg.mozilla.org/releases/mozilla-release:layout/base/nsPresShell.cpp:9c64e364f5df|4043|0xd
4|71|libxul.so|nsDocument::FlushPendingNotifications|hg:hg.mozilla.org/releases/mozilla-release:content/base/src/nsDocument.cpp:9c64e364f5df|6383|0x7
4|72|libxul.so|nsGenericElement::GetPrimaryFrame|hg:hg.mozilla.org/releases/mozilla-release:content/base/src/nsGenericElement.cpp:9c64e364f5df|3955|0x7
4|73|libxul.so|nsGenericElement::GetStyledFrame|hg:hg.mozilla.org/releases/mozilla-release:content/base/src/nsGenericElement.cpp:9c64e364f5df|2046|0x5
4|74|libxul.so|nsGenericElement::GetScrollFrame|hg:hg.mozilla.org/releases/mozilla-release:content/base/src/nsGenericElement.cpp:9c64e364f5df|2086|0x3
4|75|libxul.so|nsGenericElement::GetClientAreaRect|hg:hg.mozilla.org/releases/mozilla-release:content/base/src/nsGenericElement.cpp:9c64e364f5df|2235|0x7
4|76|libxul.so|nsIDOMElement_GetClientHeight|hg:hg.mozilla.org/releases/mozilla-release:content/base/src/nsGenericElement.h:9c64e364f5df|590|0x7
4|77|libxul.so|js_GetProperty|hg:hg.mozilla.org/releases/mozilla-release:js/src/jscntxtinlines.h:9c64e364f5df|364|0x7
4|78|libxul.so|JSObject::getGeneric|hg:hg.mozilla.org/releases/mozilla-release:js/src/jsobjinlines.h:9c64e364f5df|194|0x5
4|79|libxul.so|js::Interpret|hg:hg.mozilla.org/releases/mozilla-release:js/src/jsobjinlines.h:9c64e364f5df|209|0xb
4|80|libxul.so|js::RunScript|hg:hg.mozilla.org/releases/mozilla-release:js/src/jsinterp.cpp:9c64e364f5df|475|0x9
4|81|libxul.so|js::InvokeKernel|hg:hg.mozilla.org/releases/mozilla-release:js/src/jsinterp.cpp:9c64e364f5df|535|0x9
4|82|libxul.so|js_fun_apply|hg:hg.mozilla.org/releases/mozilla-release:js/src/jsinterp.h:9c64e364f5df|172|0xf
4|83|libxul.so|js::Interpret|hg:hg.mozilla.org/releases/mozilla-release:js/src/jscntxtinlines.h:9c64e364f5df|314|0xd
4|84|libxul.so|js::RunScript|hg:hg.mozilla.org/releases/mozilla-release:js/src/jsinterp.cpp:9c64e364f5df|475|0x9
4|85|libxul.so|js::InvokeKernel|hg:hg.mozilla.org/releases/mozilla-release:js/src/jsinterp.cpp:9c64e364f5df|535|0x9
4|86|libxul.so|js_fun_apply|hg:hg.mozilla.org/releases/mozilla-release:js/src/jsinterp.h:9c64e364f5df|172|0xf
4|87|libxul.so|js::Interpret|hg:hg.mozilla.org/releases/mozilla-release:js/src/jscntxtinlines.h:9c64e364f5df|314|0xd
4|88|libxul.so|js::RunScript|hg:hg.mozilla.org/releases/mozilla-release:js/src/jsinterp.cpp:9c64e364f5df|475|0x9
4|89|libxul.so|js::Invoke|hg:hg.mozilla.org/releases/mozilla-release:js/src/jsinterp.cpp:9c64e364f5df|535|0x9
4|90|libxul.so|JS_CallFunctionValue|hg:hg.mozilla.org/releases/mozilla-release:js/src/jsapi.cpp:9c64e364f5df|5429|0x13
4|91|libxul.so|nsXPCWrappedJSClass::CallMethod|hg:hg.mozilla.org/releases/mozilla-release:js/xpconnect/src/XPCWrappedJSClass.cpp:9c64e364f5df|1509|0x19
4|92|libxul.so|nsXPCWrappedJS::CallMethod|hg:hg.mozilla.org/releases/mozilla-release:js/xpconnect/src/XPCWrappedJS.cpp:9c64e364f5df|617|0xd
4|93|libxul.so|PrepareAndDispatch|hg:hg.mozilla.org/releases/mozilla-release:xpcom/reflect/xptcall/src/md/unix/xptcstubs_arm.cpp:9c64e364f5df|138|0xd
4|94|libxul.so||||0xa17cd7
4|95|libxul.so|nsEventListenerManager::HandleEventSubType|hg:hg.mozilla.org/releases/mozilla-release:content/events/src/nsEventListenerManager.cpp:9c64e364f5df|819|0x5
4|96|libxul.so|nsEventListenerManager::HandleEventInternal|hg:hg.mozilla.org/releases/mozilla-release:content/events/src/nsEventListenerManager.cpp:9c64e364f5df|876|0x17
4|97|libxul.so|nsEventTargetChainItem::HandleEvent|hg:hg.mozilla.org/releases/mozilla-release:content/events/src/nsEventListenerManager.h:9c64e364f5df|169|0x13
4|98|libxul.so|nsEventTargetChainItem::HandleEventTargetChain|hg:hg.mozilla.org/releases/mozilla-release:content/events/src/nsEventDispatcher.cpp:9c64e364f5df|372|0x19
4|99|libxul.so|nsEventDispatcher::Dispatch|hg:hg.mozilla.org/releases/mozilla-release:content/events/src/nsEventDispatcher.cpp:9c64e364f5df|684|0x11
4|100|libxul.so|nsGfxScrollFrameInner::FireScrollEvent|hg:hg.mozilla.org/releases/mozilla-release:layout/generic/nsGfxScrollFrame.cpp:9c64e364f5df|2859|0xb
4|134|libdvm.so|dvmResolveNativeMethod|||0x8a
4|135|libdvm.so|dvmAsmSisterStart|||0x1036
4|136|libdvm.so|dvmMterpStd|||0x8e
4|137|libdvm.so|dvmInterpret|||0x112
4|138|libdvm.so|dvmCallMethodV|||0x12c
4|139|libdvm.so|dvmCallMethod|||0x16
4|140|libdvm.so|dvmDetachCurrentThread|||0x304
4|141|libc.so|__thread_entry|||0x32
4|142|libc.so|pthread_create|||0xb6
4|143|||||0x3b2356
0|0|libc.so|epoll_wait|||0xc
0|1|libutils.so|_ZN7android6Looper9pollInnerEi|||0x20
0|2|libutils.so|_ZN7android6Looper8pollOnceEiPiS1_PPv|||0x6a
0|3|libandroid_runtime.so|_ZN7android18NativeMessageQueue8pollOnceEi|||0xc
0|4|libandroid_runtime.so|_ZN7android18NativeMessageQueue8pollOnceEi|||0x18
0|5|libdvm.so|dvmPlatformInvoke|||0x76
0|6|libdvm.so|dvmCallJNIMethod_virtualNoRef|||0x34
0|7|dalvik-jit-code-cache (deleted)||||0x23e
0|8|libdvm.so|dexDataMapAlloc|||0x1e61d
0|9|libdvm.so|dvmMterpStd|||0x8e
0|10|libdvm.so|dvmInterpret|||0x112
0|11|libdvm.so|dvmInvokeMethod|||0x18a
0|12|libdvm.so|dvmFreeDexOrJar|||0x2760
0|13|libdvm.so|dvmAsmSisterStart|||0x1036
0|14|libdvm.so|dvmMterpStd|||0x8e
0|15|libdvm.so|dvmInterpret|||0x112
0|16|libdvm.so|dvmCallMethodV|||0x12c
0|17|libdvm.so|JNI_CreateJavaVM|||0x2688
0|18|libandroid_runtime.so|_ZN7android14AndroidRuntime6onExitEi|||0x66
0|19|libandroid_runtime.so|_ZN7android14AndroidRuntime5startEPKcb|||0x180
0|20|app_process||||0xccb
0|21|app_process||||0x1026
0|22|libandroid_runtime.so|AES_decrypt|||0x2b40d
0|23|app_process||||0xb32
0|24|app_process||||0xb32
0|25|libc.so|__libc_init|||0x2e
0|26|||||0xffffffe2
0|27|app_process||||0x32
0|28|app_process||||0xb1e
1|0|libc.so|__ioctl|||0xc
1|1|libc.so|ioctl|||0x12
1|2|libbinder.so|_ZN7android14IPCThreadState14talkWithDriverEb|||0x7e
1|3|libbinder.so|_ZN7android14IPCThreadState14joinThreadPoolEb|||0xa2
1|4|libbinder.so|_ZN7android12ProcessState17spawnPooledThreadEb|||0xa6
1|5|libutils.so|_ZN7android6Thread11_threadLoopEPv|||0x70
1|6|libandroid_runtime.so|_ZN7android14AndroidRuntime15javaThreadShellEPv|||0x1e
1|7|libutils.so|_ZN7android6Thread3runEPKcij|||0x142
1|8|libc.so|__thread_entry|||0x32
1|9|libc.so|pthread_create|||0xb6
2|0|libc.so|__ioctl|||0xc
2|1|libc.so|ioctl|||0x12
2|2|libbinder.so|_ZN7android14IPCThreadState14talkWithDriverEb|||0x7e
2|3|libbinder.so|_ZN7android14IPCThreadState14joinThreadPoolEb|||0xa2
2|4|libbinder.so|_ZN7android12ProcessState17spawnPooledThreadEb|||0xa6
2|5|libutils.so|_ZN7android6Thread11_threadLoopEPv|||0x70
2|6|libandroid_runtime.so|_ZN7android14AndroidRuntime15javaThreadShellEPv|||0x1e
2|7|libutils.so|_ZN7android6Thread3runEPKcij|||0x142
2|8|libc.so|__thread_entry|||0x32
2|9|libc.so|pthread_create|||0xb6
3|0|libc.so|epoll_wait|||0xc
3|1|libutils.so|_ZN7android6Looper9pollInnerEi|||0x20
3|2|libutils.so|_ZN7android6Looper8pollOnceEiPiS1_PPv|||0x6a
3|3|libandroid_runtime.so|_ZN7android18NativeMessageQueue8pollOnceEi|||0xc
3|4|libandroid_runtime.so|_ZN7android18NativeMessageQueue8pollOnceEi|||0x18
3|5|libdvm.so|dvmPlatformInvoke|||0x76
3|6|libdvm.so|dvmCallJNIMethod_virtualNoRef|||0x34
3|7|libdvm.so|dvmAsmSisterStart|||0x1036
3|8|libdvm.so|dvmMterpStd|||0x8e
3|9|libdvm.so|dvmInterpret|||0x112
3|10|libdvm.so|dvmCallMethodV|||0x12c
3|11|libdvm.so|dvmCallMethod|||0x16
3|12|libdvm.so|dvmDetachCurrentThread|||0x304
3|13|libc.so|__thread_entry|||0x32
3|14|libc.so|pthread_create|||0xb6
5|0|libc.so|__futex_syscall3|||0xc
5|1|libc.so|__pthread_cond_timedwait_relative|||0x32
5|2|libc.so|__pthread_cond_timedwait|||0x6a
5|3|libdvm.so|absoluteTime|||0x15a
5|4|libdvm.so|dvmObjectWait|||0x4e
5|5|dalvik-heap (deleted)||||0x56937e
5|6|libdvm.so|dvmFreeDexOrJar|||0x18fa
5|7|libdvm.so|dvmAsmSisterStart|||0x1036
5|8|libdvm.so|dvmMterpStd|||0x8e
5|9|libdvm.so|dvmInterpret|||0x112
5|10|libdvm.so|dvmCallMethodV|||0x12c
5|11|libdvm.so|dvmCallMethod|||0x16
5|12|libdvm.so|dvmDetachCurrentThread|||0x304
5|13|libc.so|__thread_entry|||0x32
5|14|libc.so|pthread_create|||0xb6
6|0|libc.so|syscall|||0x20
6|1|||||0x47d00ffe
6|2|libxul.so|epoll_dispatch|hg:hg.mozilla.org/releases/mozilla-release:ipc/chromium/src/third_party/libevent/epoll.c:9c64e364f5df|208|0x9
6|3|libxul.so|event_base_loop|hg:hg.mozilla.org/releases/mozilla-release:ipc/chromium/src/third_party/libevent/event.c:9c64e364f5df|513|0xb
6|4|libxul.so|base::MessagePumpLibevent::Run|hg:hg.mozilla.org/releases/mozilla-release:ipc/chromium/src/base/message_pump_libevent.cc:9c64e364f5df|339|0x7
6|5|libxul.so|MessageLoop::RunInternal|hg:hg.mozilla.org/releases/mozilla-release:ipc/chromium/src/base/message_loop.cc:9c64e364f5df|208|0x5
6|6|libxul.so|MessageLoop::Run|hg:hg.mozilla.org/releases/mozilla-release:ipc/chromium/src/base/message_loop.cc:9c64e364f5df|201|0x5
6|7|libxul.so|base::Thread::ThreadMain|hg:hg.mozilla.org/releases/mozilla-release:ipc/chromium/src/base/thread.cc:9c64e364f5df|156|0x5
6|8|libxul.so|ThreadFunc|hg:hg.mozilla.org/releases/mozilla-release:ipc/chromium/src/base/platform_thread_posix.cc:9c64e364f5df|26|0x5
6|9|libc.so|__thread_entry|||0x32
6|10|libc.so|pthread_create|||0xb6
7|0|libc.so|__futex_syscall3|||0xc
7|1|libc.so|__pthread_cond_timedwait_relative|||0x32
7|2|libc.so|__pthread_cond_timedwait|||0x6a
7|3|libnspr4.so|PR_WaitCondVar|hg:hg.mozilla.org/mozilla-central:nsprpub/pr/src/pthreads/ptsynch.c:ab2ff3b5611f|417|0x5
7|4|libxul.so|nsCycleCollectorRunner::Run|../../dist/include/mozilla/CondVar.h|103|0x9
7|5|libxul.so|nsThread::ProcessNextEvent|hg:hg.mozilla.org/releases/mozilla-release:xpcom/threads/nsThread.cpp:9c64e364f5df|656|0x5
7|6|libxul.so|NS_ProcessNextEvent_P|hg:hg.mozilla.org/releases/mozilla-release:obj-firefox/xpcom/build/nsThreadUtils.cpp:9c64e364f5df|245|0xb
7|7|libxul.so|nsThread::ThreadFunc|hg:hg.mozilla.org/releases/mozilla-release:xpcom/threads/nsThread.cpp:9c64e364f5df|289|0x7
7|8|libnspr4.so|_pt_root|hg:hg.mozilla.org/mozilla-central:nsprpub/pr/src/pthreads/ptthread.c:ab2ff3b5611f|187|0x5
7|9|libc.so|__thread_entry|||0x32
7|10|libc.so|pthread_create|||0xb6
8|0|libc.so|__futex_syscall3|||0xc
8|1|libc.so|__pthread_cond_timedwait_relative|||0x32
8|2|libc.so|__pthread_cond_timedwait|||0x6a
8|3|libnspr4.so|PR_WaitCondVar|hg:hg.mozilla.org/mozilla-central:nsprpub/pr/src/pthreads/ptsynch.c:ab2ff3b5611f|417|0x5
8|4|libxul.so|mozilla::psm::SyncRunnableBase::DispatchToMainThreadAndWait|../../../../dist/include/mozilla/CondVar.h|103|0x9
8|5|libxul.so|nsNSSSocketInfo::GetPreviousCert|hg:hg.mozilla.org/releases/mozilla-release:security/manager/ssl/src/nsNSSIOLayer.cpp:9c64e364f5df|941|0x5
8|6|libxul.so|HandshakeCallback|hg:hg.mozilla.org/releases/mozilla-release:security/manager/ssl/src/nsNSSCallbacks.cpp:9c64e364f5df|923|0x5
8|7|libssl3.so|ssl3_FinishHandshake|ssl3con.c|8633|0xb
8|8|libssl3.so|ssl3_HandleHandshakeMessage|ssl3con.c|8609|0x5
8|9|libssl3.so|ssl3_HandleRecord|ssl3con.c|8857|0x9
8|10|libssl3.so|ssl3_GatherCompleteHandshake|ssl3gthr.c|240|0x5
8|11|libssl3.so|ssl_GatherRecord1stHandshake|sslcon.c|1253|0x7
8|12|libssl3.so|ssl_Do1stHandshake|sslsecur.c|153|0x3
8|13|libssl3.so|ssl_SecureSend|sslsecur.c|1240|0x5
8|14|libssl3.so|ssl_Send|sslsock.c|1769|0x7
8|15|libxul.so|PSMSend|hg:hg.mozilla.org/releases/mozilla-release:security/manager/ssl/src/nsNSSIOLayer.cpp:9c64e364f5df|2257|0x11
8|16|libxul.so|nsSSLIOLayerWrite|hg:hg.mozilla.org/releases/mozilla-release:security/manager/ssl/src/nsNSSIOLayer.cpp:9c64e364f5df|2274|0x7
8|17|libnspr4.so|PR_Write|hg:hg.mozilla.org/mozilla-central:nsprpub/pr/src/io/priometh.c:ab2ff3b5611f|146|0x3
8|18|libxul.so|nsSocketOutputStream::Write|hg:hg.mozilla.org/releases/mozilla-release:netwerk/base/src/nsSocketTransport2.cpp:9c64e364f5df|587|0x9
8|19|libxul.so|nsHttpConnection::EnsureNPNComplete|hg:hg.mozilla.org/releases/mozilla-release:netwerk/protocol/http/nsHttpConnection.cpp:9c64e364f5df|311|0x7
8|20|libxul.so|nsHttpConnection::OnSocketWritable|hg:hg.mozilla.org/releases/mozilla-release:netwerk/protocol/http/nsHttpConnection.cpp:9c64e364f5df|1230|0x5
8|21|libxul.so|nsHttpConnection::OnOutputStreamReady|hg:hg.mozilla.org/releases/mozilla-release:netwerk/protocol/http/nsHttpConnection.cpp:9c64e364f5df|1530|0x3
8|22|libxul.so|nsSocketOutputStream::OnSocketReady|hg:hg.mozilla.org/releases/mozilla-release:netwerk/base/src/nsSocketTransport2.cpp:9c64e364f5df|525|0x7
8|23|libxul.so|nsSocketTransport::OnSocketReady|hg:hg.mozilla.org/releases/mozilla-release:netwerk/base/src/nsSocketTransport2.cpp:9c64e364f5df|1568|0x5
8|24|libxul.so|nsSocketTransportService::DoPollIteration|hg:hg.mozilla.org/releases/mozilla-release:netwerk/base/src/nsSocketTransportService2.cpp:9c64e364f5df|774|0xb
8|25|libxul.so|nsSocketTransportService::Run|hg:hg.mozilla.org/releases/mozilla-release:netwerk/base/src/nsSocketTransportService2.cpp:9c64e364f5df|645|0xd
8|26|libxul.so|nsThread::ProcessNextEvent|hg:hg.mozilla.org/releases/mozilla-release:xpcom/threads/nsThread.cpp:9c64e364f5df|656|0x5
8|27|libxul.so|NS_ProcessNextEvent_P|hg:hg.mozilla.org/releases/mozilla-release:obj-firefox/xpcom/build/nsThreadUtils.cpp:9c64e364f5df|245|0xb
8|28|libxul.so|nsThread::ThreadFunc|hg:hg.mozilla.org/releases/mozilla-release:xpcom/threads/nsThread.cpp:9c64e364f5df|289|0x7
8|29|libnspr4.so|_pt_root|hg:hg.mozilla.org/mozilla-central:nsprpub/pr/src/pthreads/ptthread.c:ab2ff3b5611f|187|0x5
8|30|libc.so|__thread_entry|||0x32
8|31|libc.so|pthread_create|||0xb6
9|0|libc.so|__ioctl|||0xc
9|1|libc.so|ioctl|||0x12
9|2|libbinder.so|_ZN7android14IPCThreadState14talkWithDriverEb|||0x7e
9|3|libbinder.so|_ZN7android14IPCThreadState14joinThreadPoolEb|||0xa2
9|4|libbinder.so|_ZN7android12ProcessState17spawnPooledThreadEb|||0xa6
9|5|libutils.so|_ZN7android6Thread11_threadLoopEPv|||0x70
9|6|libandroid_runtime.so|_ZN7android14AndroidRuntime15javaThreadShellEPv|||0x1e
9|7|libutils.so|_ZN7android6Thread3runEPKcij|||0x142
9|8|libc.so|__thread_entry|||0x32
9|9|libc.so|pthread_create|||0xb6
10|0|libc.so|__futex_syscall3|||0xc
10|1|libc.so|__pthread_cond_timedwait_relative|||0x32
10|2|libc.so|__pthread_cond_timedwait|||0x6a
10|3|libnspr4.so|PR_WaitCondVar|hg:hg.mozilla.org/mozilla-central:nsprpub/pr/src/pthreads/ptsynch.c:ab2ff3b5611f|417|0x5
10|4|libxul.so|js::GCHelperThread::threadMain|hg:hg.mozilla.org/releases/mozilla-release:js/src/jsgc.cpp:9c64e364f5df|2656|0xb
10|5|libnspr4.so|_pt_root|hg:hg.mozilla.org/mozilla-central:nsprpub/pr/src/pthreads/ptthread.c:ab2ff3b5611f|187|0x5
10|6|libc.so|__thread_entry|||0x32
10|7|libc.so|pthread_create|||0xb6
11|0|libc.so|__futex_syscall3|||0xc
11|1|libc.so|__pthread_cond_timedwait_relative|||0x32
11|2|libc.so|__pthread_cond_timedwait|||0x6a
11|3|libnspr4.so|pt_TimedWait|hg:hg.mozilla.org/mozilla-central:nsprpub/pr/src/pthreads/ptsynch.c:ab2ff3b5611f|292|0x3
11|4|libnspr4.so|PR_WaitCondVar|hg:hg.mozilla.org/mozilla-central:nsprpub/pr/src/pthreads/ptsynch.c:ab2ff3b5611f|419|0x7
11|5|libxul.so|XPCJSRuntime::WatchdogMain|hg:hg.mozilla.org/releases/mozilla-release:js/xpconnect/src/XPCJSRuntime.cpp:9c64e364f5df|988|0x7
11|6|libnspr4.so|_pt_root|hg:hg.mozilla.org/mozilla-central:nsprpub/pr/src/pthreads/ptthread.c:ab2ff3b5611f|187|0x5
11|7|libc.so|__thread_entry|||0x32
11|8|libc.so|pthread_create|||0xb6
12|0|libc.so|__futex_syscall3|||0xc
12|1|libc.so|__pthread_cond_timedwait_relative|||0x32
12|2|libc.so|__pthread_cond_timedwait|||0x6a
12|3|libnspr4.so|PR_WaitCondVar|hg:hg.mozilla.org/mozilla-central:nsprpub/pr/src/pthreads/ptsynch.c:ab2ff3b5611f|417|0x5
12|4|libxul.so|mozilla::HangMonitor::ThreadMain|../../dist/include/mozilla/CondVar.h|103|0x5
12|5|libnspr4.so|_pt_root|hg:hg.mozilla.org/mozilla-central:nsprpub/pr/src/pthreads/ptthread.c:ab2ff3b5611f|187|0x5
12|6|libc.so|__thread_entry|||0x32
12|7|libc.so|pthread_create|||0xb6
13|0|libc.so|__futex_syscall3|||0xc
13|1|libc.so|__pthread_cond_timedwait_relative|||0x32
13|2|libc.so|__pthread_cond_timedwait|||0x6a
13|3|libnspr4.so|pt_TimedWait|hg:hg.mozilla.org/mozilla-central:nsprpub/pr/src/pthreads/ptsynch.c:ab2ff3b5611f|292|0x3
13|4|libnspr4.so|PR_WaitCondVar|hg:hg.mozilla.org/mozilla-central:nsprpub/pr/src/pthreads/ptsynch.c:ab2ff3b5611f|419|0x7
13|5|libxul.so|TimerThread::Run|../../dist/include/mozilla/CondVar.h|103|0x5
13|6|libxul.so|nsThread::ProcessNextEvent|hg:hg.mozilla.org/releases/mozilla-release:xpcom/threads/nsThread.cpp:9c64e364f5df|656|0x5
13|7|libxul.so|NS_ProcessNextEvent_P|hg:hg.mozilla.org/releases/mozilla-release:obj-firefox/xpcom/build/nsThreadUtils.cpp:9c64e364f5df|245|0xb
13|8|libxul.so|nsThread::ThreadFunc|hg:hg.mozilla.org/releases/mozilla-release:xpcom/threads/nsThread.cpp:9c64e364f5df|289|0x7
13|9|libnspr4.so|_pt_root|hg:hg.mozilla.org/mozilla-central:nsprpub/pr/src/pthreads/ptthread.c:ab2ff3b5611f|187|0x5
13|10|libc.so|__thread_entry|||0x32
13|11|libc.so|pthread_create|||0xb6
14|0|libc.so|__futex_syscall3|||0xc
14|1|libc.so|__pthread_cond_timedwait_relative|||0x32
14|2|libc.so|__pthread_cond_timedwait|||0x6a
14|3|libnspr4.so|PR_WaitCondVar|hg:hg.mozilla.org/mozilla-central:nsprpub/pr/src/pthreads/ptsynch.c:ab2ff3b5611f|417|0x5
14|4|libnspr4.so|PR_Wait|hg:hg.mozilla.org/mozilla-central:nsprpub/pr/src/pthreads/ptsynch.c:ab2ff3b5611f|614|0x3
14|5|libxul.so|nsEventQueue::GetEvent|../../dist/include/mozilla/ReentrantMonitor.h|122|0x9
14|6|libxul.so|nsThread::ProcessNextEvent|hg:hg.mozilla.org/releases/mozilla-release:xpcom/threads/nsThread.cpp:9c64e364f5df|637|0x5
14|7|libxul.so|NS_ProcessNextEvent_P|hg:hg.mozilla.org/releases/mozilla-release:obj-firefox/xpcom/build/nsThreadUtils.cpp:9c64e364f5df|245|0xb
14|8|libxul.so|nsThread::ThreadFunc|hg:hg.mozilla.org/releases/mozilla-release:xpcom/threads/nsThread.cpp:9c64e364f5df|289|0x7
14|9|libnspr4.so|_pt_root|hg:hg.mozilla.org/mozilla-central:nsprpub/pr/src/pthreads/ptthread.c:ab2ff3b5611f|187|0x5
14|10|libc.so|__thread_entry|||0x32
14|11|libc.so|pthread_create|||0xb6
15|0|libc.so|__futex_syscall3|||0xc
15|1|libc.so|__pthread_cond_timedwait_relative|||0x32
15|2|libc.so|__pthread_cond_timedwait|||0x6a
15|3|libnspr4.so|PR_WaitCondVar|hg:hg.mozilla.org/mozilla-central:nsprpub/pr/src/pthreads/ptsynch.c:ab2ff3b5611f|417|0x5
15|4|libnspr4.so|PR_Wait|hg:hg.mozilla.org/mozilla-central:nsprpub/pr/src/pthreads/ptsynch.c:ab2ff3b5611f|614|0x3
15|5|libxul.so|nsEventQueue::GetEvent|../../dist/include/mozilla/ReentrantMonitor.h|122|0x9
15|6|libxul.so|nsThread::ProcessNextEvent|hg:hg.mozilla.org/releases/mozilla-release:xpcom/threads/nsThread.cpp:9c64e364f5df|637|0x5
15|7|libxul.so|NS_ProcessNextEvent_P|hg:hg.mozilla.org/releases/mozilla-release:obj-firefox/xpcom/build/nsThreadUtils.cpp:9c64e364f5df|245|0xb
15|8|libxul.so|nsThread::ThreadFunc|hg:hg.mozilla.org/releases/mozilla-release:xpcom/threads/nsThread.cpp:9c64e364f5df|289|0x7
15|9|libnspr4.so|_pt_root|hg:hg.mozilla.org/mozilla-central:nsprpub/pr/src/pthreads/ptthread.c:ab2ff3b5611f|187|0x5
15|10|libc.so|__thread_entry|||0x32
15|11|libc.so|pthread_create|||0xb6
16|0|libc.so|__futex_syscall3|||0xc
16|1|libc.so|__pthread_cond_timedwait_relative|||0x32
16|2|libc.so|__pthread_cond_timedwait|||0x6a
16|3|libnspr4.so|PR_WaitCondVar|hg:hg.mozilla.org/mozilla-central:nsprpub/pr/src/pthreads/ptsynch.c:ab2ff3b5611f|417|0x5
16|4|libnspr4.so|PR_Wait|hg:hg.mozilla.org/mozilla-central:nsprpub/pr/src/pthreads/ptsynch.c:ab2ff3b5611f|614|0x3
16|5|libxul.so|nsEventQueue::GetEvent|../../dist/include/mozilla/ReentrantMonitor.h|122|0x9
16|6|libxul.so|nsThread::ProcessNextEvent|hg:hg.mozilla.org/releases/mozilla-release:xpcom/threads/nsThread.cpp:9c64e364f5df|637|0x5
16|7|libxul.so|NS_ProcessNextEvent_P|hg:hg.mozilla.org/releases/mozilla-release:obj-firefox/xpcom/build/nsThreadUtils.cpp:9c64e364f5df|245|0xb
16|8|libxul.so|nsThread::ThreadFunc|hg:hg.mozilla.org/releases/mozilla-release:xpcom/threads/nsThread.cpp:9c64e364f5df|289|0x7
16|9|libnspr4.so|_pt_root|hg:hg.mozilla.org/mozilla-central:nsprpub/pr/src/pthreads/ptthread.c:ab2ff3b5611f|187|0x5
16|10|libc.so|__thread_entry|||0x32
16|11|libc.so|pthread_create|||0xb6
17|0|libdvm.so|dvmRemoveFromReferenceTable|||0x1d
17|1|libdvm.so|JNI_CreateJavaVM|||0x15ce
17|2|libdvm.so|JNI_CreateJavaVM|||0x1620
17|3|libandroid_runtime.so|_ZN11AInputQueueC2ERKN7android2spINS0_12InputChannelEEEi|||0x61c
17|4|libandroid_runtime.so|_Z34register_android_opengl_jni_GLES20P7_JNIEnv|||0x1ea4
17|5|libdvm.so|dvmPlatformInvoke|||0x76
17|6|||||0x489aceda
17|7|dalvik-LinearAlloc (deleted)||||0x6204a
17|8|dalvik-heap (deleted)||||0x28336
17|9|libdvm.so|dvmCallJNIMethod_general|||0x44
17|10|libdvm.so|dvmAsmSisterStart|||0x1036
17|11|libdvm.so|dvmMterpStd|||0x8e
17|12|libdvm.so|dvmInterpret|||0x112
17|13|libdvm.so|dvmCallMethodV|||0x12c
17|14|libdvm.so|JNI_CreateJavaVM|||0x2bc8
17|15|libxul.so|_JNIEnv::CallVoidMethod|/tools/android-ndk-r5c/platforms/android-5/arch-arm/usr/include/jni.h|631|0x5
17|16|libxul.so|mozilla::AndroidLayerRendererFrame::DrawForeground|hg:hg.mozilla.org/releases/mozilla-release:widget/android/AndroidJavaWrappers.cpp:9c64e364f5df|865|0xb
17|17|libxul.so|nsWindow::DrawWindowOverlay|hg:hg.mozilla.org/releases/mozilla-release:widget/android/nsWindow.cpp:9c64e364f5df|2275|0xb
17|18|libxul.so|mozilla::layers::LayerManagerOGL::Render|hg:hg.mozilla.org/releases/mozilla-release:gfx/layers/opengl/LayerManagerOGL.cpp:9c64e364f5df|836|0x7
17|19|libxul.so|mozilla::layers::LayerManagerOGL::EndTransaction|hg:hg.mozilla.org/releases/mozilla-release:gfx/layers/opengl/LayerManagerOGL.cpp:9c64e364f5df|468|0x5
17|20|libxul.so|mozilla::layers::LayerManagerOGL::EndEmptyTransaction|hg:hg.mozilla.org/releases/mozilla-release:gfx/layers/opengl/LayerManagerOGL.cpp:9c64e364f5df|441|0xb
17|21|libxul.so|mozilla::layers::CompositorParent::Composite|hg:hg.mozilla.org/releases/mozilla-release:gfx/layers/ipc/CompositorParent.cpp:9c64e364f5df|259|0x5
17|22|libxul.so|RunnableMethod<mozilla::layers::CompositorParent, void (mozilla::layers::CompositorParent::*)(), Tuple0>::Run|hg:hg.mozilla.org/releases/mozilla-release:ipc/chromium/src/base/tuple.h:9c64e364f5df|383|0xf
17|23|libxul.so|MessageLoop::RunTask|hg:hg.mozilla.org/releases/mozilla-release:ipc/chromium/src/base/message_loop.cc:9c64e364f5df|318|0x5
17|24|libxul.so|MessageLoop::DeferOrRunPendingTask|hg:hg.mozilla.org/releases/mozilla-release:ipc/chromium/src/base/message_loop.cc:9c64e364f5df|326|0x5
17|25|libxul.so|MessageLoop::DoWork|hg:hg.mozilla.org/releases/mozilla-release:ipc/chromium/src/base/message_loop.cc:9c64e364f5df|426|0x7
17|26|libxul.so|base::MessagePumpDefault::Run|hg:hg.mozilla.org/releases/mozilla-release:ipc/chromium/src/base/message_pump_default.cc:9c64e364f5df|23|0x7
17|27|libxul.so|MessageLoop::RunInternal|hg:hg.mozilla.org/releases/mozilla-release:ipc/chromium/src/base/message_loop.cc:9c64e364f5df|208|0x5
17|28|libxul.so|MessageLoop::Run|hg:hg.mozilla.org/releases/mozilla-release:ipc/chromium/src/base/message_loop.cc:9c64e364f5df|201|0x5
17|29|libxul.so|base::Thread::ThreadMain|hg:hg.mozilla.org/releases/mozilla-release:ipc/chromium/src/base/thread.cc:9c64e364f5df|156|0x5
17|30|libxul.so|ThreadFunc|hg:hg.mozilla.org/releases/mozilla-release:ipc/chromium/src/base/platform_thread_posix.cc:9c64e364f5df|26|0x5
17|31|libc.so|__thread_entry|||0x32
17|32|libc.so|pthread_create|||0xb6
18|0|libc.so|__futex_syscall3|||0xc
18|1|libc.so|__pthread_cond_timedwait_relative|||0x32
18|2|libc.so|__pthread_cond_timedwait|||0x6a
18|3|libdvm.so|absoluteTime|||0x15a
18|4|libdvm.so|dvmObjectWait|||0x4e
18|5|dalvik-heap (deleted)||||0x59ef46
18|6|libdvm.so|dvmFreeDexOrJar|||0x18fa
18|7|libdvm.so|dvmAsmSisterStart|||0x1036
18|8|libdvm.so|dvmMterpStd|||0x8e
18|9|libdvm.so|dvmInterpret|||0x112
18|10|libdvm.so|dvmCallMethodV|||0x12c
18|11|libdvm.so|dvmCallMethod|||0x16
18|12|libdvm.so|dvmDetachCurrentThread|||0x304
18|13|libc.so|__thread_entry|||0x32
18|14|libc.so|pthread_create|||0xb6
19|0|libc.so|epoll_wait|||0xc
19|1|libutils.so|_ZN7android6Looper9pollInnerEi|||0x20
19|2|libutils.so|_ZN7android6Looper8pollOnceEiPiS1_PPv|||0x6a
19|3|libgui.so|_ZNK7android16SensorEventQueue12waitForEventEv|||0x24
19|4|libandroid_runtime.so|_Z32register_android_hardware_CameraP7_JNIEnv|||0x45c
19|5|libdvm.so|dvmPlatformInvoke|||0x76
19|6|dalvik-heap (deleted)||||0x30fde
19|7|libdvm.so|dvmCallJNIMethod_general|||0x44
19|8|dalvik-jit-code-cache (deleted)||||0x23e
19|9|libdvm.so|dexDataMapAlloc|||0x1e61d
19|10|libdvm.so|dvmMterpStd|||0x8e
19|11|libdvm.so|dvmInterpret|||0x112
19|12|libdvm.so|dvmCallMethodV|||0x12c
19|13|libdvm.so|dvmCallMethod|||0x16
19|14|libdvm.so|dvmDetachCurrentThread|||0x304
19|15|libc.so|__thread_entry|||0x32
19|16|libc.so|pthread_create|||0xb6
20|0|libc.so|__futex_syscall3|||0xc
20|1|libc.so|__pthread_cond_timedwait_relative|||0x32
20|2|libc.so|__pthread_cond_timedwait|||0x6a
20|3|libnspr4.so|PR_WaitCondVar|hg:hg.mozilla.org/mozilla-central:nsprpub/pr/src/pthreads/ptsynch.c:ab2ff3b5611f|417|0x5
20|4|libxul.so|nsCertVerificationThread::Run|../../../../dist/include/mozilla/CondVar.h|103|0x9
20|5|libxul.so|nsPSMBackgroundThread::nsThreadRunner|hg:hg.mozilla.org/releases/mozilla-release:security/manager/ssl/src/nsPSMBackgroundThread.cpp:9c64e364f5df|46|0x3
20|6|libnspr4.so|_pt_root|hg:hg.mozilla.org/mozilla-central:nsprpub/pr/src/pthreads/ptthread.c:ab2ff3b5611f|187|0x5
20|7|libc.so|__thread_entry|||0x32
20|8|libc.so|pthread_create|||0xb6
21|0|libc.so|__futex_syscall3|||0xc
21|1|libc.so|__pthread_cond_timedwait_relative|||0x32
21|2|libc.so|__pthread_cond_timedwait|||0x6a
21|3|libnspr4.so|pt_TimedWait|hg:hg.mozilla.org/mozilla-central:nsprpub/pr/src/pthreads/ptsynch.c:ab2ff3b5611f|292|0x3
21|4|libnspr4.so|PR_WaitCondVar|hg:hg.mozilla.org/mozilla-central:nsprpub/pr/src/pthreads/ptsynch.c:ab2ff3b5611f|419|0x7
21|5|libxul.so|nsHostResolver::GetHostToLookup|../../dist/include/mozilla/CondVar.h|103|0x3
21|6|libxul.so|nsHostResolver::ThreadFunc|hg:hg.mozilla.org/releases/mozilla-release:netwerk/dns/nsHostResolver.cpp:9c64e364f5df|994|0x7
21|7|libnspr4.so|_pt_root|hg:hg.mozilla.org/mozilla-central:nsprpub/pr/src/pthreads/ptthread.c:ab2ff3b5611f|187|0x5
21|8|libc.so|__thread_entry|||0x32
21|9|libc.so|pthread_create|||0xb6
22|0|libc.so|__futex_syscall3|||0xc
22|1|libc.so|__pthread_cond_timedwait_relative|||0x32
22|2|libc.so|__pthread_cond_timedwait|||0x6a
22|3|libdvm.so|absoluteTime|||0x15a
22|4|libdvm.so|dvmObjectWait|||0x4e
22|5|dalvik-heap (deleted)||||0x6e06be
22|6|libdvm.so|dvmFreeDexOrJar|||0x18fa
22|7|libdvm.so|dvmAsmSisterStart|||0x1036
22|8|libdvm.so|dvmMterpStd|||0x8e
22|9|libdvm.so|dvmInterpret|||0x112
22|10|libdvm.so|dvmCallMethodV|||0x12c
22|11|libdvm.so|dvmCallMethod|||0x16
22|12|libdvm.so|dvmDetachCurrentThread|||0x304
22|13|libc.so|__thread_entry|||0x32
22|14|libc.so|pthread_create|||0xb6
23|0|libc.so|__futex_syscall3|||0xc
23|1|libc.so|__pthread_cond_timedwait_relative|||0x32
23|2|libc.so|__pthread_cond_timedwait|||0x6a
23|3|libdvm.so|absoluteTime|||0x15a
23|4|libdvm.so|dvmObjectWait|||0x4e
23|5|dalvik-heap (deleted)||||0x5770be
23|6|libdvm.so|dvmFreeDexOrJar|||0x18fa
23|7|libdvm.so|dvmAsmSisterStart|||0x1036
23|8|libdvm.so|dvmMterpStd|||0x8e
23|9|libdvm.so|dvmInterpret|||0x112
23|10|libdvm.so|dvmCallMethodV|||0x12c
23|11|libdvm.so|dvmCallMethod|||0x16
23|12|libdvm.so|dvmDetachCurrentThread|||0x304
23|13|libc.so|__thread_entry|||0x32
23|14|libc.so|pthread_create|||0xb6
24|0|libc.so|__futex_syscall3|||0xc
24|1|libc.so|__pthread_cond_timedwait_relative|||0x32
24|2|libc.so|__pthread_cond_timedwait|||0x6a
24|3|libdvm.so|absoluteTime|||0x15a
24|4|libdvm.so|dvmObjectWait|||0x4e
24|5|dalvik-heap (deleted)||||0x6b9556
24|6|libdvm.so|dvmFreeDexOrJar|||0x18fa
24|7|libdvm.so|dvmAsmSisterStart|||0x1036
24|8|libdvm.so|dvmMterpStd|||0x8e
24|9|libdvm.so|dvmInterpret|||0x112
24|10|libdvm.so|dvmCallMethodV|||0x12c
24|11|libdvm.so|dvmCallMethod|||0x16
24|12|libdvm.so|dvmDetachCurrentThread|||0x304
24|13|libc.so|__thread_entry|||0x32
24|14|libc.so|pthread_create|||0xb6
25|0|libc.so|__futex_syscall3|||0xc
25|1|libc.so|__pthread_cond_timedwait_relative|||0x32
25|2|libc.so|__pthread_cond_timedwait|||0x6a
25|3|libnspr4.so|pt_TimedWait|hg:hg.mozilla.org/mozilla-central:nsprpub/pr/src/pthreads/ptsynch.c:ab2ff3b5611f|292|0x3
25|4|libnspr4.so|PR_WaitCondVar|hg:hg.mozilla.org/mozilla-central:nsprpub/pr/src/pthreads/ptsynch.c:ab2ff3b5611f|419|0x7
25|5|libxul.so|nsHostResolver::GetHostToLookup|../../dist/include/mozilla/CondVar.h|103|0x3
25|6|libxul.so|nsHostResolver::ThreadFunc|hg:hg.mozilla.org/releases/mozilla-release:netwerk/dns/nsHostResolver.cpp:9c64e364f5df|994|0x7
25|7|libnspr4.so|_pt_root|hg:hg.mozilla.org/mozilla-central:nsprpub/pr/src/pthreads/ptthread.c:ab2ff3b5611f|187|0x5
25|8|libc.so|__thread_entry|||0x32
25|9|libc.so|pthread_create|||0xb6
26|0|libc.so|__futex_syscall3|||0xc
26|1|libc.so|__pthread_cond_timedwait_relative|||0x32
26|2|libc.so|__pthread_cond_timedwait|||0x6a
26|3|libnspr4.so|pt_TimedWait|hg:hg.mozilla.org/mozilla-central:nsprpub/pr/src/pthreads/ptsynch.c:ab2ff3b5611f|292|0x3
26|4|libnspr4.so|PR_WaitCondVar|hg:hg.mozilla.org/mozilla-central:nsprpub/pr/src/pthreads/ptsynch.c:ab2ff3b5611f|419|0x7
26|5|libxul.so|nsHostResolver::GetHostToLookup|../../dist/include/mozilla/CondVar.h|103|0x3
26|6|libxul.so|nsHostResolver::ThreadFunc|hg:hg.mozilla.org/releases/mozilla-release:netwerk/dns/nsHostResolver.cpp:9c64e364f5df|994|0x7
26|7|libnspr4.so|_pt_root|hg:hg.mozilla.org/mozilla-central:nsprpub/pr/src/pthreads/ptthread.c:ab2ff3b5611f|187|0x5
26|8|libc.so|__thread_entry|||0x32
26|9|libc.so|pthread_create|||0xb6
27|0|libc.so|__futex_syscall3|||0xc
27|1|libc.so|__pthread_cond_timedwait_relative|||0x32
27|2|libc.so|__pthread_cond_timedwait|||0x6a
27|3|libnspr4.so|pt_TimedWait|hg:hg.mozilla.org/mozilla-central:nsprpub/pr/src/pthreads/ptsynch.c:ab2ff3b5611f|292|0x3
27|4|libnspr4.so|PR_WaitCondVar|hg:hg.mozilla.org/mozilla-central:nsprpub/pr/src/pthreads/ptsynch.c:ab2ff3b5611f|419|0x7
27|5|libxul.so|nsHostResolver::GetHostToLookup|../../dist/include/mozilla/CondVar.h|103|0x3
27|6|libxul.so|nsHostResolver::ThreadFunc|hg:hg.mozilla.org/releases/mozilla-release:netwerk/dns/nsHostResolver.cpp:9c64e364f5df|994|0x7
27|7|libnspr4.so|_pt_root|hg:hg.mozilla.org/mozilla-central:nsprpub/pr/src/pthreads/ptthread.c:ab2ff3b5611f|187|0x5
27|8|libc.so|__thread_entry|||0x32
27|9|libc.so|pthread_create|||0xb6
28|0|libc.so|__futex_syscall3|||0xc
28|1|libc.so|__pthread_cond_timedwait_relative|||0x32
28|2|libc.so|__pthread_cond_timedwait|||0x6a
28|3|libdvm.so|absoluteTime|||0x15a
28|4|libdvm.so|dvmObjectWait|||0x4e
28|5|dalvik-heap (deleted)||||0x6aafc6
28|6|libdvm.so|dvmFreeDexOrJar|||0x18fa
28|7|libdvm.so|dvmAsmSisterStart|||0x1036
28|8|libdvm.so|dvmMterpStd|||0x8e
28|9|libdvm.so|dvmInterpret|||0x112
28|10|libdvm.so|dvmCallMethodV|||0x12c
28|11|libdvm.so|dvmCallMethod|||0x16
28|12|libdvm.so|dvmDetachCurrentThread|||0x304
28|13|libc.so|__thread_entry|||0x32
28|14|libc.so|pthread_create|||0xb6
28|15|||||0x6f719e
29|0|libc.so|__futex_syscall3|||0xc
29|1|libc.so|__pthread_cond_timedwait_relative|||0x32
29|2|libc.so|__pthread_cond_timedwait|||0x6a
29|3|libnspr4.so|pt_TimedWait|hg:hg.mozilla.org/mozilla-central:nsprpub/pr/src/pthreads/ptsynch.c:ab2ff3b5611f|292|0x3
29|4|libnspr4.so|PR_WaitCondVar|hg:hg.mozilla.org/mozilla-central:nsprpub/pr/src/pthreads/ptsynch.c:ab2ff3b5611f|419|0x7
29|5|libxul.so|nsHostResolver::GetHostToLookup|../../dist/include/mozilla/CondVar.h|103|0x3
29|6|libxul.so|nsHostResolver::ThreadFunc|hg:hg.mozilla.org/releases/mozilla-release:netwerk/dns/nsHostResolver.cpp:9c64e364f5df|994|0x7
29|7|libnspr4.so|_pt_root|hg:hg.mozilla.org/mozilla-central:nsprpub/pr/src/pthreads/ptthread.c:ab2ff3b5611f|187|0x5
29|8|libc.so|__thread_entry|||0x32
29|9|libc.so|pthread_create|||0xb6
30|0|libc.so|__futex_syscall3|||0xc
30|1|libc.so|__pthread_cond_timedwait_relative|||0x32
30|2|libc.so|__pthread_cond_timedwait|||0x6a
30|3|libnspr4.so|pt_TimedWait|hg:hg.mozilla.org/mozilla-central:nsprpub/pr/src/pthreads/ptsynch.c:ab2ff3b5611f|292|0x3
30|4|libnspr4.so|PR_WaitCondVar|hg:hg.mozilla.org/mozilla-central:nsprpub/pr/src/pthreads/ptsynch.c:ab2ff3b5611f|419|0x7
30|5|libxul.so|nsHostResolver::GetHostToLookup|../../dist/include/mozilla/CondVar.h|103|0x3
30|6|libxul.so|nsHostResolver::ThreadFunc|hg:hg.mozilla.org/releases/mozilla-release:netwerk/dns/nsHostResolver.cpp:9c64e364f5df|994|0x7
30|7|libnspr4.so|_pt_root|hg:hg.mozilla.org/mozilla-central:nsprpub/pr/src/pthreads/ptthread.c:ab2ff3b5611f|187|0x5
30|8|libc.so|__thread_entry|||0x32
30|9|libc.so|pthread_create|||0xb6
31|0|libc.so|__futex_syscall3|||0xc
31|1|libc.so|__pthread_cond_timedwait_relative|||0x32
31|2|libc.so|__pthread_cond_timedwait|||0x6a
31|3|libnspr4.so|pt_TimedWait|hg:hg.mozilla.org/mozilla-central:nsprpub/pr/src/pthreads/ptsynch.c:ab2ff3b5611f|292|0x3
31|4|libnspr4.so|PR_WaitCondVar|hg:hg.mozilla.org/mozilla-central:nsprpub/pr/src/pthreads/ptsynch.c:ab2ff3b5611f|419|0x7
31|5|libxul.so|nsHostResolver::GetHostToLookup|../../dist/include/mozilla/CondVar.h|103|0x3
31|6|libxul.so|nsHostResolver::ThreadFunc|hg:hg.mozilla.org/releases/mozilla-release:netwerk/dns/nsHostResolver.cpp:9c64e364f5df|994|0x7
31|7|libnspr4.so|_pt_root|hg:hg.mozilla.org/mozilla-central:nsprpub/pr/src/pthreads/ptthread.c:ab2ff3b5611f|187|0x5
31|8|libc.so|__thread_entry|||0x32
31|9|libc.so|pthread_create|||0xb6
32|0|libc.so|__futex_syscall3|||0xc
32|1|libc.so|__pthread_cond_timedwait_relative|||0x32
32|2|libc.so|__pthread_cond_timedwait|||0x6a
32|3|libnspr4.so|pt_TimedWait|hg:hg.mozilla.org/mozilla-central:nsprpub/pr/src/pthreads/ptsynch.c:ab2ff3b5611f|292|0x3
32|4|libnspr4.so|PR_WaitCondVar|hg:hg.mozilla.org/mozilla-central:nsprpub/pr/src/pthreads/ptsynch.c:ab2ff3b5611f|419|0x7
32|5|libxul.so|nsHostResolver::GetHostToLookup|../../dist/include/mozilla/CondVar.h|103|0x3
32|6|libxul.so|nsHostResolver::ThreadFunc|hg:hg.mozilla.org/releases/mozilla-release:netwerk/dns/nsHostResolver.cpp:9c64e364f5df|994|0x7
32|7|libnspr4.so|_pt_root|hg:hg.mozilla.org/mozilla-central:nsprpub/pr/src/pthreads/ptthread.c:ab2ff3b5611f|187|0x5
32|8|libc.so|__thread_entry|||0x32
32|9|libc.so|pthread_create|||0xb6
33|0|libc.so|__futex_syscall3|||0xc
33|1|libc.so|__pthread_cond_timedwait_relative|||0x32
33|2|libc.so|__pthread_cond_timedwait|||0x6a
33|3|libnspr4.so|pt_TimedWait|hg:hg.mozilla.org/mozilla-central:nsprpub/pr/src/pthreads/ptsynch.c:ab2ff3b5611f|292|0x3
33|4|libnspr4.so|PR_WaitCondVar|hg:hg.mozilla.org/mozilla-central:nsprpub/pr/src/pthreads/ptsynch.c:ab2ff3b5611f|419|0x7
33|5|libnspr4.so|PR_Wait|hg:hg.mozilla.org/mozilla-central:nsprpub/pr/src/pthreads/ptsynch.c:ab2ff3b5611f|614|0x3
33|6|libxul.so|nsThreadPool::Run|../../dist/include/mozilla/ReentrantMonitor.h|122|0xd
33|7|libxul.so|nsThread::ProcessNextEvent|hg:hg.mozilla.org/releases/mozilla-release:xpcom/threads/nsThread.cpp:9c64e364f5df|656|0x5
33|8|libxul.so|NS_ProcessNextEvent_P|hg:hg.mozilla.org/releases/mozilla-release:obj-firefox/xpcom/build/nsThreadUtils.cpp:9c64e364f5df|245|0xb
33|9|libxul.so|nsThread::ThreadFunc|hg:hg.mozilla.org/releases/mozilla-release:xpcom/threads/nsThread.cpp:9c64e364f5df|289|0x7
33|10|libnspr4.so|_pt_root|hg:hg.mozilla.org/mozilla-central:nsprpub/pr/src/pthreads/ptthread.c:ab2ff3b5611f|187|0x5
33|11|libc.so|__thread_entry|||0x32
33|12|libc.so|pthread_create|||0xb6
34|0|libc.so|__futex_syscall3|||0xc
34|1|libc.so|__pthread_cond_timedwait_relative|||0x32
34|2|libc.so|__pthread_cond_timedwait|||0x6a
34|3|libnspr4.so|pt_TimedWait|hg:hg.mozilla.org/mozilla-central:nsprpub/pr/src/pthreads/ptsynch.c:ab2ff3b5611f|292|0x3
34|4|libnspr4.so|PR_WaitCondVar|hg:hg.mozilla.org/mozilla-central:nsprpub/pr/src/pthreads/ptsynch.c:ab2ff3b5611f|419|0x7
34|5|libnspr4.so|PR_Wait|hg:hg.mozilla.org/mozilla-central:nsprpub/pr/src/pthreads/ptsynch.c:ab2ff3b5611f|614|0x3
34|6|libxul.so|nsThreadPool::Run|../../dist/include/mozilla/ReentrantMonitor.h|122|0xd
34|7|libxul.so|nsThread::ProcessNextEvent|hg:hg.mozilla.org/releases/mozilla-release:xpcom/threads/nsThread.cpp:9c64e364f5df|656|0x5
34|8|libxul.so|NS_ProcessNextEvent_P|hg:hg.mozilla.org/releases/mozilla-release:obj-firefox/xpcom/build/nsThreadUtils.cpp:9c64e364f5df|245|0xb
34|9|libxul.so|nsThread::ThreadFunc|hg:hg.mozilla.org/releases/mozilla-release:xpcom/threads/nsThread.cpp:9c64e364f5df|289|0x7
34|10|libnspr4.so|_pt_root|hg:hg.mozilla.org/mozilla-central:nsprpub/pr/src/pthreads/ptthread.c:ab2ff3b5611f|187|0x5
34|11|libc.so|__thread_entry|||0x32
34|12|libc.so|pthread_create|||0xb6
